; Function Attrs: mustprogress uwtable
define void @_ZN3g2o22RobustKernelScaleDeltaC2ERKSt10shared_ptrINS_12RobustKernelEEd(ptr noundef nonnull align 8 dereferenceable(32) %0, ptr noundef nonnull readonly align 8 captures(none) dereferenceable(16) %1, double noundef %2) unnamed_addr #4 align 2 personality ptr @__gxx_personality_v0 {
  tail call void @_ZN3g2o12RobustKernelC2Ed(ptr noundef nonnull align 8 dereferenceable(16) %0, double noundef %2)
  store ptr getelementptr inbounds nuw inrange(-16, 32) (i8, ptr @_ZTVN3g2o22RobustKernelScaleDeltaE, i64 16), ptr %0, align 8, !tbaa !3
  %4 = getelementptr inbounds nuw i8, ptr %0, i64 16
  %5 = load ptr, ptr %1, align 8, !tbaa !6
  store ptr %5, ptr %4, align 8, !tbaa !6
  %6 = getelementptr inbounds nuw i8, ptr %0, i64 24
  %7 = getelementptr inbounds nuw i8, ptr %1, i64 8
  %8 = load ptr, ptr %7, align 8, !tbaa !13
  store ptr %8, ptr %6, align 8, !tbaa !13
  %.not.i.i.i = icmp eq ptr %8, null
  br i1 %.not.i.i.i, label %_ZNSt10shared_ptrIN3g2o12RobustKernelEEC2ERKS2_.exit, label %9

9:                                                ; preds = %3
  %10 = getelementptr inbounds nuw i8, ptr %8, i64 8
  %11 = load i8, ptr @__libc_single_threaded, align 1, !tbaa !14
  %.not.i.i.i.i = icmp eq i8 %11, 0
  br i1 %.not.i.i.i.i, label %15, label %12

12:                                               ; preds = %9
  %13 = load i32, ptr %10, align 4, !tbaa !15
  %14 = add nsw i32 %13, 1
  store i32 %14, ptr %10, align 4, !tbaa !15
  br label %_ZNSt10shared_ptrIN3g2o12RobustKernelEEC2ERKS2_.exit

15:                                               ; preds = %9
  %16 = atomicrmw volatile add ptr %10, i32 1 acq_rel, align 4
  br label %_ZNSt10shared_ptrIN3g2o12RobustKernelEEC2ERKS2_.exit

_ZNSt10shared_ptrIN3g2o12RobustKernelEEC2ERKS2_.exit: ; preds = %3, %12, %15
  ret void
}